; Function Attrs: nounwind uwtable
define noalias noundef ptr @Abc_SuppDiffMatrix(ptr noundef readonly captures(none) %0) local_unnamed_addr #0 {
  %2 = alloca %struct.timespec, align 8
  %3 = alloca %struct.timespec, align 8
  call void @llvm.lifetime.start.p0(i64 16, ptr nonnull %3) #24
  %4 = call i32 @clock_gettime(i32 noundef 1, ptr noundef nonnull %3) #24
  %5 = icmp slt i32 %4, 0
  br i1 %5, label %Abc_Clock.exit, label %6

6:                                                ; preds = %1
  %7 = load i64, ptr %3, align 8, !tbaa !34
  %.neg39 = mul i64 %7, -1000000
  %8 = getelementptr inbounds nuw i8, ptr %3, i64 8
  %9 = load i64, ptr %8, align 8, !tbaa !36
  %.neg = sdiv i64 %9, -1000
  %.neg40 = add i64 %.neg, %.neg39
  br label %Abc_Clock.exit

Abc_Clock.exit:                                   ; preds = %1, %6
  %.0.i.neg = phi i64 [ %.neg40, %6 ], [ 1, %1 ]
  call void @llvm.lifetime.end.p0(i64 16, ptr nonnull %3) #24
  %10 = getelementptr i8, ptr %0, i64 8
  %.val33 = load ptr, ptr %10, align 8, !tbaa !11
  %11 = getelementptr i8, ptr %0, i64 4
  %.val30 = load i32, ptr %11, align 4, !tbaa !3
  %12 = sext i32 %.val30 to i64
  %.idx = shl nsw i64 %12, 3
  %13 = getelementptr inbounds i8, ptr %.val33, i64 %.idx
  %14 = add nsw i32 %.val30, -1
  %15 = mul nsw i32 %14, %.val30
  %16 = sdiv i32 %15, 2
  %17 = add nsw i32 %16, -1
  %or.cond.i = icmp ult i32 %17, 15
  %spec.store.select.i = select i1 %or.cond.i, i32 16, i32 %16
  %.not.i = icmp eq i32 %spec.store.select.i, 0
  br i1 %.not.i, label %Vec_WrdAlloc.exit, label %18

18:                                               ; preds = %Abc_Clock.exit
  %19 = sext i32 %spec.store.select.i to i64
  %20 = shl nsw i64 %19, 3
  %21 = call noalias ptr @malloc(i64 noundef %20) #22
  br label %Vec_WrdAlloc.exit

Vec_WrdAlloc.exit:                                ; preds = %Abc_Clock.exit, %18
  %22 = phi ptr [ %21, %18 ], [ null, %Abc_Clock.exit ]
  %or.cond = icmp slt i32 %.val30, 2
  br i1 %or.cond, label %._crit_edge, label %.lr.ph.preheader.lr.ph

.lr.ph.preheader.lr.ph:                           ; preds = %Vec_WrdAlloc.exit
  %23 = getelementptr inbounds nuw i8, ptr %.val33, i64 8
  br label %.lr.ph.preheader

.loopexit:                                        ; preds = %.lr.ph
  %24 = getelementptr inbounds nuw i8, ptr %26, i64 8
  %25 = icmp ult ptr %24, %13
  br i1 %25, label %.lr.ph.preheader, label %._crit_edge, !llvm.loop !39

.lr.ph.preheader:                                 ; preds = %.lr.ph.preheader.lr.ph, %.loopexit
  %26 = phi ptr [ %23, %.lr.ph.preheader.lr.ph ], [ %24, %.loopexit ]
  %.0244348 = phi ptr [ %.val33, %.lr.ph.preheader.lr.ph ], [ %26, %.loopexit ]
  %.04447 = phi ptr [ %22, %.lr.ph.preheader.lr.ph ], [ %30, %.loopexit ]
  br label %.lr.ph

.lr.ph:                                           ; preds = %.lr.ph.preheader, %.lr.ph
  %.142 = phi ptr [ %30, %.lr.ph ], [ %.04447, %.lr.ph.preheader ]
  %.02341 = phi ptr [ %31, %.lr.ph ], [ %26, %.lr.ph.preheader ]
  %27 = load i64, ptr %.0244348, align 8, !tbaa !12
  %28 = load i64, ptr %.02341, align 8, !tbaa !12
  %29 = xor i64 %28, %27
  %30 = getelementptr inbounds nuw i8, ptr %.142, i64 8
  store i64 %29, ptr %.142, align 8, !tbaa !12
  %31 = getelementptr inbounds nuw i8, ptr %.02341, i64 8
  %32 = icmp ult ptr %31, %13
  br i1 %32, label %.lr.ph, label %.loopexit, !llvm.loop !40

._crit_edge:                                      ; preds = %.loopexit, %Vec_WrdAlloc.exit
  %33 = call noalias dereferenceable_or_null(16) ptr @malloc(i64 noundef 16) #22
  %34 = getelementptr inbounds nuw i8, ptr %33, i64 4
  store i32 %spec.store.select.i, ptr %34, align 4, !tbaa !3
  store i32 %spec.store.select.i, ptr %33, align 8, !tbaa !10
  br i1 %.not.i, label %Vec_WrdDup.exit, label %35

35:                                               ; preds = %._crit_edge
  %36 = sext i32 %spec.store.select.i to i64
  %37 = shl nsw i64 %36, 3
  %38 = call noalias ptr @malloc(i64 noundef %37) #22
  br label %Vec_WrdDup.exit

Vec_WrdDup.exit:                                  ; preds = %._crit_edge, %35
  %.pre-phi12.i = phi i64 [ %37, %35 ], [ 0, %._crit_edge ]
  %39 = phi ptr [ %38, %35 ], [ null, %._crit_edge ]
  %40 = getelementptr inbounds nuw i8, ptr %33, i64 8
  store ptr %39, ptr %40, align 8, !tbaa !11
  call void @llvm.memcpy.p0.p0.i64(ptr align 8 %39, ptr align 8 %22, i64 %.pre-phi12.i, i1 false)
  %41 = sitofp i32 %spec.store.select.i to double
  %42 = fmul double %41, 1.000000e+02
  %43 = fdiv double %42, %41
  %44 = call i32 (ptr, ...) @printf(ptr noundef nonnull dereferenceable(1) @.str.25, i32 noundef %spec.store.select.i, double noundef %43)
  call void @llvm.lifetime.start.p0(i64 16, ptr nonnull %2) #24
  %45 = call i32 @clock_gettime(i32 noundef 1, ptr noundef nonnull %2) #24
  %46 = icmp slt i32 %45, 0
  br i1 %46, label %Abc_Clock.exit37, label %47

47:                                               ; preds = %Vec_WrdDup.exit
  %48 = load i64, ptr %2, align 8, !tbaa !34
  %49 = mul nsw i64 %48, 1000000
  %50 = getelementptr inbounds nuw i8, ptr %2, i64 8
  %51 = load i64, ptr %50, align 8, !tbaa !36
  %52 = sdiv i64 %51, 1000
  %53 = add nsw i64 %52, %49
  br label %Abc_Clock.exit37

Abc_Clock.exit37:                                 ; preds = %Vec_WrdDup.exit, %47
  %.0.i36 = phi i64 [ %53, %47 ], [ -1, %Vec_WrdDup.exit ]
  call void @llvm.lifetime.end.p0(i64 16, ptr nonnull %2) #24
  %54 = add i64 %.0.i36, %.0.i.neg
  call void (i32, ptr, ...) @Abc_Print(i32 poison, ptr noundef nonnull @.str.28, ptr noundef nonnull @.str.26)
  %55 = sitofp i64 %54 to double
  %56 = fdiv double %55, 1.000000e+06
  call void (i32, ptr, ...) @Abc_Print(i32 poison, ptr noundef nonnull @.str.29, double noundef %56)
  %.not.i38 = icmp eq ptr %22, null
  br i1 %.not.i38, label %Vec_WrdFree.exit, label %57

57:                                               ; preds = %Abc_Clock.exit37
  call void @free(ptr noundef nonnull %22) #24
  br label %Vec_WrdFree.exit

Vec_WrdFree.exit:                                 ; preds = %Abc_Clock.exit37, %57
  ret ptr %33
}